ccopy_reg
_reconstructor
p0
(c__main__
EbookReader
p1
c__builtin__
object
p2
Ntp3
Rp4
(dp5
S'money'
p6
F2362.0
sS'books'
p7
(lp8
g0
(c__main__
Book
p9
g2
Ntp10
Rp11
(dp12
S'author'
p13
S'Washington Irving (1783-1859)'
p14
sS'text'
p15
NsS'price'
p16
I19
sS'title'
p17
S'The Sketch Book: Rural Funerals, by Washington Irving (1820)'
p18
sS'link'
p19
S'http://www.textfiles.com/etext/AUTHORS/IRVING/irving-rural-579.txt'
p20
sS'id'
p21
I0
sbag0
(g9
g2
Ntp22
Rp23
(dp24
g13
S'Edgar Allan Poe (1809-1849)'
p25
sg15
Nsg16
I19
sg17
S'The Assignation, by Edgar Allan Poe (1834)'
p26
sg19
S'http://www.textfiles.com/etext/AUTHORS/POE/poe-assignation-667.txt'
p27
sg21
I1
sbasb.